; Function Attrs: mustprogress nounwind uwtable
define hidden noundef zeroext i1 @_ZN7Matcher15is_reg2reg_moveEP8MachNode(ptr noundef %0) local_unnamed_addr #3 align 2 {
  %2 = load ptr, ptr %0, align 8
  %3 = getelementptr inbounds i8, ptr %2, i64 192
  %4 = load ptr, ptr %3, align 8
  %5 = tail call noundef i32 %4(ptr noundef nonnull align 8 dereferenceable(64) %0) #23
  %switch.tableidx = add i32 %5, -320
  %6 = icmp ult i32 %switch.tableidx, 47
  %switch.cast = zext nneg i32 %switch.tableidx to i47
  %switch.downshift = lshr i47 -35184372088577, %switch.cast
  %switch.masked = trunc i47 %switch.downshift to i1
  %.0 = select i1 %6, i1 %switch.masked, i1 false
  ret i1 %.0
}